; Function Attrs: nounwind uwtable
define internal noundef i32 @grob(double %0, ptr noundef %1, ptr readnone captures(none) %2, ptr noundef writeonly captures(none) initializes((0, 16)) %3, ptr readnone captures(none) %4) #0 {
  %6 = tail call ptr @N_VGetArrayPointer(ptr noundef %1) #7
  %7 = load double, ptr %6, align 8, !tbaa !11
  %8 = getelementptr inbounds nuw i8, ptr %6, i64 16
  %9 = load double, ptr %8, align 8, !tbaa !11
  %10 = fadd double %7, -1.000000e-04
  store double %10, ptr %3, align 8, !tbaa !11
  %11 = fadd double %9, -1.000000e-02
  %12 = getelementptr inbounds nuw i8, ptr %3, i64 8
  store double %11, ptr %12, align 8, !tbaa !11
  ret i32 0
}